target datalayout = "e-m:e-p270:32:32-p271:32:32-p272:64:64-i64:64-i128:128-f80:128-n8:16:32:64-S128"
target triple = "x86_64-pc-linux-gnu"

%struct._exr_encode_pipeline = type { i64, ptr, i16, i16, i32, ptr, %struct.exr_chunk_info_t, ptr, ptr, i64, i64, ptr, i64, ptr, i64, i64, ptr, i64, i64, ptr, i64, ptr, i64, ptr, ptr, ptr, ptr, ptr, ptr, [5 x %struct.exr_coding_channel_info_t] }
%struct.exr_chunk_info_t = type { i32, i32, i32, i32, i32, i8, i8, i8, i8, i64, i64, i64, i64, i64 }
%struct.exr_coding_channel_info_t = type { ptr, i32, i32, i32, i32, i8, i8, i16, i16, i16, i32, i32, %union.anon }
%union.anon = type { ptr }
%struct._priv_exr_context_t = type { i8, i8, i8, i8, i8, i8, i8, i8, %struct.exr_attr_string_t, %struct.exr_attr_string_t, ptr, ptr, ptr, ptr, ptr, ptr, ptr, ptr, i32, i32, i32, i32, i32, float, ptr, ptr, ptr, i64, ptr, ptr, i64, i32, i32, i32, i32, %struct._priv_exr_part_t, ptr, ptr, %struct.exr_attribute_list, %union.pthread_mutex_t, i8, i8, [2 x i8], i32 }
%struct.exr_attr_string_t = type { i32, i32, ptr }
%struct._priv_exr_part_t = type { i32, i32, %struct.exr_attribute_list, ptr, ptr, ptr, ptr, ptr, ptr, ptr, ptr, ptr, ptr, ptr, ptr, ptr, ptr, %struct.exr_attr_box2i_t, %struct.exr_attr_box2i_t, i32, i32, i32, float, i32, i32, ptr, ptr, ptr, ptr, i64, i16, i16, i32, i64, i64 }
%struct.exr_attr_box2i_t = type { %struct.exr_attr_v2i_t, %struct.exr_attr_v2i_t }
%struct.exr_attr_v2i_t = type { i32, i32 }
%struct.exr_attribute_list = type { i32, i32, ptr, ptr }
%union.pthread_mutex_t = type { %struct.__pthread_mutex_s }
%struct.__pthread_mutex_s = type { i32, i32, i32, i32, i32, i16, i16, %struct.__pthread_internal_list }
%struct.__pthread_internal_list = type { ptr, ptr }

@.str = private unnamed_addr constant [29 x i8] c"Part index (%d) out of range\00", align 1
@.str.1 = private unnamed_addr constant [71 x i8] c"Cross-wired request for default routines from different context / part\00", align 1

; Function Attrs: inlinehint nounwind uwtable
define internal void @internal_exr_unlock(ptr noundef %0) #3 {
  %2 = alloca ptr, align 8
  %3 = alloca ptr, align 8
  store ptr %0, ptr %2, align 8, !tbaa !3
  call void @llvm.lifetime.start.p0(i64 8, ptr %3) #7
  %4 = load ptr, ptr %2, align 8, !tbaa !3
  %5 = ptrtoint ptr %4 to i64
  %6 = inttoptr i64 %5 to ptr
  store ptr %6, ptr %3, align 8, !tbaa !3
  %7 = load ptr, ptr %3, align 8, !tbaa !3
  %8 = getelementptr inbounds nuw %struct._priv_exr_context_t, ptr %7, i32 0, i32 39
  %9 = call i32 @pthread_mutex_unlock(ptr noundef %8) #7
  call void @llvm.lifetime.end.p0(i64 8, ptr %3) #7
  ret void
}

; Function Attrs: inlinehint nounwind uwtable
define internal void @internal_exr_lock(ptr noundef %0) #3 {
  %2 = alloca ptr, align 8
  %3 = alloca ptr, align 8
  store ptr %0, ptr %2, align 8, !tbaa !3
  call void @llvm.lifetime.start.p0(i64 8, ptr %3) #7
  %4 = load ptr, ptr %2, align 8, !tbaa !3
  %5 = ptrtoint ptr %4 to i64
  %6 = inttoptr i64 %5 to ptr
  store ptr %6, ptr %3, align 8, !tbaa !3
  %7 = load ptr, ptr %3, align 8, !tbaa !3
  %8 = getelementptr inbounds nuw %struct._priv_exr_context_t, ptr %7, i32 0, i32 39
  %9 = call i32 @pthread_mutex_lock(ptr noundef %8) #7
  call void @llvm.lifetime.end.p0(i64 8, ptr %3) #7
  ret void
}

; Function Attrs: nounwind uwtable
define i32 @exr_encoding_choose_default_routines(ptr noundef %0, i32 noundef %1, ptr noundef %2) #0 {
  %4 = alloca i32, align 4
  %5 = alloca ptr, align 8
  %6 = alloca i32, align 4
  %7 = alloca ptr, align 8
  %8 = alloca i32, align 4
  %9 = alloca ptr, align 8
  %10 = alloca i32, align 4
  store ptr %0, ptr %5, align 8, !tbaa !3
  store i32 %1, ptr %6, align 4, !tbaa !8
  store ptr %2, ptr %7, align 8, !tbaa !11
  call void @llvm.lifetime.start.p0(i64 4, ptr %8) #7
  store i32 0, ptr %8, align 4, !tbaa !8
  call void @llvm.lifetime.start.p0(i64 8, ptr %9) #7
  %11 = load ptr, ptr %5, align 8, !tbaa !3
  %12 = icmp ne ptr %11, null
  br i1 %12, label %14, label %13

13:                                               ; preds = %3
  store i32 2, ptr %4, align 4
  store i32 1, ptr %10, align 4
  br label %137

14:                                               ; preds = %3
  %15 = load ptr, ptr %5, align 8, !tbaa !3
  %16 = getelementptr inbounds nuw %struct._priv_exr_context_t, ptr %15, i32 0, i32 0
  %17 = load i8, ptr %16, align 8, !tbaa !13
  %18 = zext i8 %17 to i32
  %19 = icmp eq i32 %18, 1
  br i1 %19, label %20, label %22

20:                                               ; preds = %14
  %21 = load ptr, ptr %5, align 8, !tbaa !3
  call void @internal_exr_lock(ptr noundef %21)
  br label %22

22:                                               ; preds = %20, %14
  %23 = load i32, ptr %6, align 4, !tbaa !8
  %24 = icmp slt i32 %23, 0
  br i1 %24, label %31, label %25

25:                                               ; preds = %22
  %26 = load i32, ptr %6, align 4, !tbaa !8
  %27 = load ptr, ptr %5, align 8, !tbaa !3
  %28 = getelementptr inbounds nuw %struct._priv_exr_context_t, ptr %27, i32 0, i32 34
  %29 = load i32, ptr %28, align 4, !tbaa !28
  %30 = icmp sge i32 %26, %29
  br i1 %30, label %31, label %46

31:                                               ; preds = %25, %22
  %32 = load ptr, ptr %5, align 8, !tbaa !3
  %33 = getelementptr inbounds nuw %struct._priv_exr_context_t, ptr %32, i32 0, i32 0
  %34 = load i8, ptr %33, align 8, !tbaa !13
  %35 = zext i8 %34 to i32
  %36 = icmp eq i32 %35, 1
  br i1 %36, label %37, label %39

37:                                               ; preds = %31
  %38 = load ptr, ptr %5, align 8, !tbaa !3
  call void @internal_exr_unlock(ptr noundef %38)
  br label %39

39:                                               ; preds = %37, %31
  %40 = load ptr, ptr %5, align 8, !tbaa !3
  %41 = getelementptr inbounds nuw %struct._priv_exr_context_t, ptr %40, i32 0, i32 14
  %42 = load ptr, ptr %41, align 8, !tbaa !29
  %43 = load ptr, ptr %5, align 8, !tbaa !3
  %44 = load i32, ptr %6, align 4, !tbaa !8
  %45 = call i32 (ptr, i32, ptr, ...) %42(ptr noundef %43, i32 noundef 4, ptr noundef @.str, i32 noundef %44)
  store i32 %45, ptr %4, align 4
  store i32 1, ptr %10, align 4
  br label %137

46:                                               ; preds = %25
  %47 = load ptr, ptr %5, align 8, !tbaa !3
  %48 = getelementptr inbounds nuw %struct._priv_exr_context_t, ptr %47, i32 0, i32 37
  %49 = load ptr, ptr %48, align 8, !tbaa !30
  %50 = load i32, ptr %6, align 4, !tbaa !8
  %51 = sext i32 %50 to i64
  %52 = getelementptr inbounds ptr, ptr %49, i64 %51
  %53 = load ptr, ptr %52, align 8, !tbaa !31
  store ptr %53, ptr %9, align 8, !tbaa !31
  %54 = load ptr, ptr %7, align 8, !tbaa !11
  %55 = icmp ne ptr %54, null
  br i1 %55, label %71, label %56

56:                                               ; preds = %46
  %57 = load ptr, ptr %5, align 8, !tbaa !3
  %58 = getelementptr inbounds nuw %struct._priv_exr_context_t, ptr %57, i32 0, i32 0
  %59 = load i8, ptr %58, align 8, !tbaa !13
  %60 = zext i8 %59 to i32
  %61 = icmp eq i32 %60, 1
  br i1 %61, label %62, label %64

62:                                               ; preds = %56
  %63 = load ptr, ptr %5, align 8, !tbaa !3
  call void @internal_exr_unlock(ptr noundef %63)
  br label %65

64:                                               ; preds = %56
  br label %65

65:                                               ; preds = %64, %62
  %66 = load ptr, ptr %5, align 8, !tbaa !3
  %67 = getelementptr inbounds nuw %struct._priv_exr_context_t, ptr %66, i32 0, i32 12
  %68 = load ptr, ptr %67, align 8, !tbaa !32
  %69 = load ptr, ptr %5, align 8, !tbaa !3
  %70 = call i32 %68(ptr noundef %69, i32 noundef 3)
  store i32 %70, ptr %4, align 4
  store i32 1, ptr %10, align 4
  br label %137

71:                                               ; preds = %46
  %72 = load ptr, ptr %7, align 8, !tbaa !11
  %73 = getelementptr inbounds nuw %struct._exr_encode_pipeline, ptr %72, i32 0, i32 5
  %74 = load ptr, ptr %73, align 8, !tbaa !41
  %75 = load ptr, ptr %5, align 8, !tbaa !3
  %76 = icmp ne ptr %74, %75
  br i1 %76, label %83, label %77

77:                                               ; preds = %71
  %78 = load ptr, ptr %7, align 8, !tbaa !11
  %79 = getelementptr inbounds nuw %struct._exr_encode_pipeline, ptr %78, i32 0, i32 4
  %80 = load i32, ptr %79, align 4, !tbaa !38
  %81 = load i32, ptr %6, align 4, !tbaa !8
  %82 = icmp ne i32 %80, %81
  br i1 %82, label %83, label %98

83:                                               ; preds = %77, %71
  %84 = load ptr, ptr %5, align 8, !tbaa !3
  %85 = getelementptr inbounds nuw %struct._priv_exr_context_t, ptr %84, i32 0, i32 0
  %86 = load i8, ptr %85, align 8, !tbaa !13
  %87 = zext i8 %86 to i32
  %88 = icmp eq i32 %87, 1
  br i1 %88, label %89, label %91

89:                                               ; preds = %83
  %90 = load ptr, ptr %5, align 8, !tbaa !3
  call void @internal_exr_unlock(ptr noundef %90)
  br label %92

91:                                               ; preds = %83
  br label %92

92:                                               ; preds = %91, %89
  %93 = load ptr, ptr %5, align 8, !tbaa !3
  %94 = getelementptr inbounds nuw %struct._priv_exr_context_t, ptr %93, i32 0, i32 14
  %95 = load ptr, ptr %94, align 8, !tbaa !29
  %96 = load ptr, ptr %5, align 8, !tbaa !3
  %97 = call i32 (ptr, i32, ptr, ...) %95(ptr noundef %96, i32 noundef 3, ptr noundef @.str.1)
  store i32 %97, ptr %4, align 4
  store i32 1, ptr %10, align 4
  br label %137

98:                                               ; preds = %77
  %99 = load ptr, ptr %9, align 8, !tbaa !31
  %100 = getelementptr inbounds nuw %struct._priv_exr_part_t, ptr %99, i32 0, i32 1
  %101 = load i32, ptr %100, align 4, !tbaa !43
  %102 = icmp eq i32 %101, 2
  br i1 %102, label %108, label %103

103:                                              ; preds = %98
  %104 = load ptr, ptr %9, align 8, !tbaa !31
  %105 = getelementptr inbounds nuw %struct._priv_exr_part_t, ptr %104, i32 0, i32 1
  %106 = load i32, ptr %105, align 4, !tbaa !43
  %107 = icmp eq i32 %106, 3
  br label %108

108:                                              ; preds = %103, %98
  %109 = phi i1 [ true, %98 ], [ %107, %103 ]
  %110 = select i1 %109, i32 1, i32 0
  store i32 %110, ptr %8, align 4, !tbaa !8
  %111 = load ptr, ptr %7, align 8, !tbaa !11
  %112 = load i32, ptr %8, align 4, !tbaa !8
  %113 = call ptr @internal_exr_match_encode(ptr noundef %111, i32 noundef %112)
  %114 = load ptr, ptr %7, align 8, !tbaa !11
  %115 = getelementptr inbounds nuw %struct._exr_encode_pipeline, ptr %114, i32 0, i32 25
  store ptr %113, ptr %115, align 8, !tbaa !44
  %116 = load ptr, ptr %9, align 8, !tbaa !31
  %117 = getelementptr inbounds nuw %struct._priv_exr_part_t, ptr %116, i32 0, i32 19
  %118 = load i32, ptr %117, align 8, !tbaa !45
  %119 = icmp ne i32 %118, 0
  br i1 %119, label %120, label %123

120:                                              ; preds = %108
  %121 = load ptr, ptr %7, align 8, !tbaa !11
  %122 = getelementptr inbounds nuw %struct._exr_encode_pipeline, ptr %121, i32 0, i32 26
  store ptr @exr_compress_chunk, ptr %122, align 8, !tbaa !46
  br label %123

123:                                              ; preds = %120, %108
  %124 = load ptr, ptr %7, align 8, !tbaa !11
  %125 = getelementptr inbounds nuw %struct._exr_encode_pipeline, ptr %124, i32 0, i32 27
  store ptr @default_yield, ptr %125, align 8, !tbaa !47
  %126 = load ptr, ptr %7, align 8, !tbaa !11
  %127 = getelementptr inbounds nuw %struct._exr_encode_pipeline, ptr %126, i32 0, i32 28
  store ptr @default_write_chunk, ptr %127, align 8, !tbaa !48
  %128 = load ptr, ptr %5, align 8, !tbaa !3
  %129 = getelementptr inbounds nuw %struct._priv_exr_context_t, ptr %128, i32 0, i32 0
  %130 = load i8, ptr %129, align 8, !tbaa !13
  %131 = zext i8 %130 to i32
  %132 = icmp eq i32 %131, 1
  br i1 %132, label %133, label %135

133:                                              ; preds = %123
  %134 = load ptr, ptr %5, align 8, !tbaa !3
  call void @internal_exr_unlock(ptr noundef %134)
  br label %136

135:                                              ; preds = %123
  br label %136

136:                                              ; preds = %135, %133
  store i32 0, ptr %4, align 4
  store i32 1, ptr %10, align 4
  br label %137

137:                                              ; preds = %136, %92, %65, %39, %13
  call void @llvm.lifetime.end.p0(i64 8, ptr %9) #7
  call void @llvm.lifetime.end.p0(i64 4, ptr %8) #7
  %138 = load i32, ptr %4, align 4
  ret i32 %138
}