; Function Attrs: nounwind uwtable
define i32 @exr_encoding_choose_default_routines(ptr noundef %0, i32 noundef %1, ptr noundef %2) local_unnamed_addr #0 {
  %.not = icmp eq ptr %0, null
  br i1 %.not, label %76, label %4

4:                                                ; preds = %3
  %5 = load i8, ptr %0, align 8, !tbaa !3
  %6 = icmp eq i8 %5, 1
  br i1 %6, label %7, label %10

7:                                                ; preds = %4
  %8 = getelementptr inbounds nuw i8, ptr %0, i64 504
  %9 = tail call i32 @pthread_mutex_lock(ptr noundef nonnull %8) #5
  br label %10

10:                                               ; preds = %7, %4
  %11 = icmp slt i32 %1, 0
  br i1 %11, label %15, label %12

12:                                               ; preds = %10
  %13 = getelementptr inbounds nuw i8, ptr %0, i64 196
  %14 = load i32, ptr %13, align 4, !tbaa !22
  %.not41 = icmp slt i32 %1, %14
  br i1 %.not41, label %25, label %15

15:                                               ; preds = %12, %10
  %16 = load i8, ptr %0, align 8, !tbaa !3
  %17 = icmp eq i8 %16, 1
  br i1 %17, label %18, label %21

18:                                               ; preds = %15
  %19 = getelementptr inbounds nuw i8, ptr %0, i64 504
  %20 = tail call i32 @pthread_mutex_unlock(ptr noundef nonnull %19) #5
  br label %21

21:                                               ; preds = %18, %15
  %22 = getelementptr inbounds nuw i8, ptr %0, i64 72
  %23 = load ptr, ptr %22, align 8, !tbaa !23
  %24 = tail call i32 (ptr, i32, ptr, ...) %23(ptr noundef nonnull %0, i32 noundef 4, ptr noundef nonnull @.str, i32 noundef %1) #5
  br label %76

25:                                               ; preds = %12
  %26 = getelementptr inbounds nuw i8, ptr %0, i64 472
  %27 = load ptr, ptr %26, align 8, !tbaa !24
  %28 = zext nneg i32 %1 to i64
  %29 = getelementptr inbounds nuw ptr, ptr %27, i64 %28
  %30 = load ptr, ptr %29, align 8, !tbaa !25
  %.not42 = icmp eq ptr %2, null
  br i1 %.not42, label %31, label %41

31:                                               ; preds = %25
  %32 = load i8, ptr %0, align 8, !tbaa !3
  %33 = icmp eq i8 %32, 1
  br i1 %33, label %34, label %37

34:                                               ; preds = %31
  %35 = getelementptr inbounds nuw i8, ptr %0, i64 504
  %36 = tail call i32 @pthread_mutex_unlock(ptr noundef nonnull %35) #5
  br label %37

37:                                               ; preds = %31, %34
  %38 = getelementptr inbounds nuw i8, ptr %0, i64 56
  %39 = load ptr, ptr %38, align 8, !tbaa !26
  %40 = tail call i32 %39(ptr noundef nonnull %0, i32 noundef 3) #5
  br label %76

41:                                               ; preds = %25
  %42 = getelementptr inbounds nuw i8, ptr %2, i64 24
  %43 = load ptr, ptr %42, align 8, !tbaa !31
  %.not43 = icmp eq ptr %43, %0
  br i1 %.not43, label %44, label %47

44:                                               ; preds = %41
  %45 = getelementptr inbounds nuw i8, ptr %2, i64 20
  %46 = load i32, ptr %45, align 4, !tbaa !27
  %.not44 = icmp eq i32 %46, %1
  br i1 %.not44, label %57, label %47

47:                                               ; preds = %44, %41
  %48 = load i8, ptr %0, align 8, !tbaa !3
  %49 = icmp eq i8 %48, 1
  br i1 %49, label %50, label %53

50:                                               ; preds = %47
  %51 = getelementptr inbounds nuw i8, ptr %0, i64 504
  %52 = tail call i32 @pthread_mutex_unlock(ptr noundef nonnull %51) #5
  br label %53

53:                                               ; preds = %47, %50
  %54 = getelementptr inbounds nuw i8, ptr %0, i64 72
  %55 = load ptr, ptr %54, align 8, !tbaa !23
  %56 = tail call i32 (ptr, i32, ptr, ...) %55(ptr noundef nonnull %0, i32 noundef 3, ptr noundef nonnull @.str.1) #5
  br label %76

57:                                               ; preds = %44
  %58 = getelementptr inbounds nuw i8, ptr %30, i64 4
  %59 = load i32, ptr %58, align 4, !tbaa !36
  %60 = and i32 %59, -2
  %narrow = icmp eq i32 %60, 2
  %61 = zext i1 %narrow to i32
  %62 = tail call ptr @internal_exr_match_encode(ptr noundef nonnull %2, i32 noundef %61) #5
  %63 = getelementptr inbounds nuw i8, ptr %2, i64 240
  store ptr %62, ptr %63, align 8, !tbaa !37
  %64 = getelementptr inbounds nuw i8, ptr %30, i64 176
  %65 = load i32, ptr %64, align 8, !tbaa !38
  %.not45 = icmp eq i32 %65, 0
  br i1 %.not45, label %68, label %66

66:                                               ; preds = %57
  %67 = getelementptr inbounds nuw i8, ptr %2, i64 248
  store ptr @exr_compress_chunk, ptr %67, align 8, !tbaa !39
  br label %68

68:                                               ; preds = %66, %57
  %69 = getelementptr inbounds nuw i8, ptr %2, i64 256
  store ptr @default_yield, ptr %69, align 8, !tbaa !40
  %70 = getelementptr inbounds nuw i8, ptr %2, i64 264
  store ptr @default_write_chunk, ptr %70, align 8, !tbaa !41
  %71 = load i8, ptr %0, align 8, !tbaa !3
  %72 = icmp eq i8 %71, 1
  br i1 %72, label %73, label %76

73:                                               ; preds = %68
  %74 = getelementptr inbounds nuw i8, ptr %0, i64 504
  %75 = tail call i32 @pthread_mutex_unlock(ptr noundef nonnull %74) #5
  br label %76

76:                                               ; preds = %73, %68, %3, %53, %37, %21
  %.0 = phi i32 [ %24, %21 ], [ %56, %53 ], [ %40, %37 ], [ 2, %3 ], [ 0, %68 ], [ 0, %73 ]
  ret i32 %.0
}